; Function Attrs: mustprogress nofree norecurse nosync nounwind willreturn memory(read, argmem: readwrite, inaccessiblemem: none) uwtable
define hidden void @_Py_Specialize_ForIter(i64 %0, ptr noundef captures(none) initializes((0, 1)) %1, i32 noundef %2) local_unnamed_addr #2 {
  %4 = getelementptr i8, ptr %1, i64 2
  %5 = inttoptr i64 %0 to ptr
  %6 = getelementptr i8, ptr %5, i64 8
  %.val = load ptr, ptr %6, align 8, !tbaa !9
  %7 = icmp eq ptr %.val, @PyListIter_Type
  br i1 %7, label %8, label %9

8:                                                ; preds = %3
  store i8 -64, ptr %1, align 2, !tbaa !4
  br label %adaptive_counter_backoff.exit

9:                                                ; preds = %3
  %10 = icmp eq ptr %.val, @PyTupleIter_Type
  br i1 %10, label %11, label %12

11:                                               ; preds = %9
  store i8 -62, ptr %1, align 2, !tbaa !4
  br label %adaptive_counter_backoff.exit

12:                                               ; preds = %9
  %13 = icmp eq ptr %.val, @PyRangeIter_Type
  br i1 %13, label %14, label %15

14:                                               ; preds = %12
  store i8 -63, ptr %1, align 2, !tbaa !4
  br label %adaptive_counter_backoff.exit

15:                                               ; preds = %12
  %16 = icmp eq ptr %.val, @PyGen_Type
  %17 = icmp slt i32 %2, 32768
  %or.cond = and i1 %17, %16
  br i1 %or.cond, label %18, label %26

18:                                               ; preds = %15
  %19 = tail call align 8 ptr @llvm.threadlocal.address.p0(ptr align 8 @_Py_tss_tstate)
  %20 = load ptr, ptr %19, align 8, !tbaa !34
  %21 = getelementptr inbounds nuw i8, ptr %20, i64 16
  %22 = load ptr, ptr %21, align 8, !tbaa !36
  %23 = getelementptr inbounds nuw i8, ptr %22, i64 8472
  %24 = load ptr, ptr %23, align 8, !tbaa !73
  %.not = icmp eq ptr %24, null
  br i1 %.not, label %25, label %26

25:                                               ; preds = %18
  store i8 -65, ptr %1, align 2, !tbaa !4
  br label %adaptive_counter_backoff.exit

26:                                               ; preds = %15, %18
  store i8 69, ptr %1, align 2, !tbaa !4
  %27 = load i16, ptr %4, align 2
  %28 = and i16 %27, 15
  %29 = icmp samesign ult i16 %28, 12
  br i1 %29, label %30, label %adaptive_counter_backoff.exit

30:                                               ; preds = %26
  %narrow.i.i = add nuw nsw i16 %28, 1
  %31 = zext nneg i16 %narrow.i.i to i32
  %notmask.i.i = shl nsw i32 -1, %31
  %32 = trunc i32 %notmask.i.i to i16
  %33 = xor i16 %32, -1
  %34 = shl nuw i16 %33, 4
  %35 = or i16 %34, %narrow.i.i
  br label %adaptive_counter_backoff.exit

adaptive_counter_backoff.exit:                    ; preds = %8, %11, %14, %25, %30, %26
  %storemerge = phi i16 [ %35, %30 ], [ -4, %26 ], [ 832, %25 ], [ 832, %14 ], [ 832, %11 ], [ 832, %8 ]
  store i16 %storemerge, ptr %4, align 2, !tbaa !174
  ret void
}